target datalayout = "e-m:e-p270:32:32-p271:32:32-p272:64:64-i64:64-i128:128-f80:128-n8:16:32:64-S128"
target triple = "x86_64-pc-linux-gnu"

; Function Attrs: mustprogress uwtable
define noundef i32 @_ZN5Ipopt22PardisoSolverInterface10MultiSolveEbPKiS2_iPdbi(ptr noundef nonnull align 8 dereferenceable(177) %0, i1 noundef zeroext %1, ptr noundef %2, ptr noundef %3, i32 noundef %4, ptr noundef %5, i1 noundef zeroext %6, i32 noundef %7) unnamed_addr #4 align 2 {
  %9 = alloca i32, align 4
  %10 = alloca ptr, align 8
  %11 = alloca i8, align 1
  %12 = alloca ptr, align 8
  %13 = alloca ptr, align 8
  %14 = alloca i32, align 4
  %15 = alloca ptr, align 8
  %16 = alloca i8, align 1
  %17 = alloca i32, align 4
  %18 = alloca i32, align 4
  store ptr %0, ptr %10, align 8
  %19 = zext i1 %1 to i8
  store i8 %19, ptr %11, align 1
  store ptr %2, ptr %12, align 8
  store ptr %3, ptr %13, align 8
  store i32 %4, ptr %14, align 4
  store ptr %5, ptr %15, align 8
  %20 = zext i1 %6 to i8
  store i8 %20, ptr %16, align 1
  store i32 %7, ptr %17, align 4
  %21 = load ptr, ptr %10, align 8
  %22 = load i8, ptr %11, align 1
  %23 = trunc i8 %22 to i1
  br i1 %23, label %24, label %36

24:                                               ; preds = %8
  %25 = load ptr, ptr %12, align 8
  %26 = load ptr, ptr %13, align 8
  %27 = load i8, ptr %16, align 1
  %28 = trunc i8 %27 to i1
  %29 = load i32, ptr %17, align 4
  %30 = call noundef i32 @_ZN5Ipopt22PardisoSolverInterface13FactorizationEPKiS2_bi(ptr noundef nonnull align 8 dereferenceable(177) %21, ptr noundef %25, ptr noundef %26, i1 noundef zeroext %28, i32 noundef %29)
  store i32 %30, ptr %18, align 4
  %31 = load i32, ptr %18, align 4
  %32 = icmp ne i32 %31, 0
  br i1 %32, label %33, label %35

33:                                               ; preds = %24
  %34 = load i32, ptr %18, align 4
  store i32 %34, ptr %9, align 4
  br label %42

35:                                               ; preds = %24
  br label %36

36:                                               ; preds = %35, %8
  %37 = load ptr, ptr %12, align 8
  %38 = load ptr, ptr %13, align 8
  %39 = load i32, ptr %14, align 4
  %40 = load ptr, ptr %15, align 8
  %41 = call noundef i32 @_ZN5Ipopt22PardisoSolverInterface5SolveEPKiS2_iPd(ptr noundef nonnull align 8 dereferenceable(177) %21, ptr noundef %37, ptr noundef %38, i32 noundef %39, ptr noundef %40)
  store i32 %41, ptr %9, align 4
  br label %42

42:                                               ; preds = %36, %33
  %43 = load i32, ptr %9, align 4
  ret i32 %43
}