; Function Attrs: mustprogress uwtable
define noundef i32 @_ZN5Ipopt22PardisoSolverInterface10MultiSolveEbPKiS2_iPdbi(ptr noundef nonnull align 8 dereferenceable(177) %0, i1 noundef zeroext %1, ptr noundef %2, ptr noundef %3, i32 noundef %4, ptr noundef %5, i1 noundef zeroext %6, i32 noundef %7) unnamed_addr #3 align 2 {
  br i1 %1, label %9, label %11

9:                                                ; preds = %8
  %10 = tail call noundef i32 @_ZN5Ipopt22PardisoSolverInterface13FactorizationEPKiS2_bi(ptr noundef nonnull align 8 dereferenceable(177) %0, ptr noundef %2, ptr noundef %3, i1 noundef zeroext %6, i32 noundef %7), !range !4
  %.not = icmp eq i32 %10, 0
  br i1 %.not, label %11, label %13

11:                                               ; preds = %9, %8
  %12 = tail call noundef i32 @_ZN5Ipopt22PardisoSolverInterface5SolveEPKiS2_iPd(ptr noundef nonnull align 8 dereferenceable(177) %0, ptr noundef %2, ptr noundef %3, i32 noundef %4, ptr noundef %5), !range !4
  br label %13

13:                                               ; preds = %9, %11
  %.0 = phi i32 [ %12, %11 ], [ %10, %9 ]
  ret i32 %.0
}